target datalayout = "e-m:e-p270:32:32-p271:32:32-p272:64:64-i64:64-i128:128-f80:128-n8:16:32:64-S128"
target triple = "x86_64-pc-linux-gnu"

%"class.pbrt::RNG" = type { i64, i64 }
%"class.pbrt::MLTSampler" = type { i32, %"class.pbrt::RNG", float, float, i32, %"class.pstd::vector.18", i64, i8, i64, i32, i32 }
%"class.pstd::vector.18" = type { %"class.pstd::pmr::polymorphic_allocator.19", ptr, i64, i64 }
%"class.pstd::pmr::polymorphic_allocator.19" = type { ptr }

@_ZN4pbrtL15OneMinusEpsilonE = internal constant float 0x3FEFFFFFE0000000, align 4

; Function Attrs: inlinehint mustprogress nounwind uwtable
define linkonce_odr dso_local noundef nonnull align 4 dereferenceable(4) ptr @_ZSt3minIfERKT_S2_S2_(ptr noundef nonnull align 4 dereferenceable(4) %0, ptr noundef nonnull align 4 dereferenceable(4) %1) #6 comdat {
  %3 = alloca ptr, align 8
  %4 = alloca ptr, align 8
  %5 = alloca ptr, align 8
  store ptr %0, ptr %4, align 8, !tbaa !171
  store ptr %1, ptr %5, align 8, !tbaa !171
  %6 = load ptr, ptr %5, align 8, !tbaa !171
  %7 = load float, ptr %6, align 4, !tbaa !9
  %8 = load ptr, ptr %4, align 8, !tbaa !171
  %9 = load float, ptr %8, align 4, !tbaa !9
  %10 = fcmp olt float %7, %9
  br i1 %10, label %11, label %13

11:                                               ; preds = %2
  %12 = load ptr, ptr %5, align 8, !tbaa !171
  store ptr %12, ptr %3, align 8
  br label %15

13:                                               ; preds = %2
  %14 = load ptr, ptr %4, align 8, !tbaa !171
  store ptr %14, ptr %3, align 8
  br label %15

15:                                               ; preds = %13, %11
  %16 = load ptr, ptr %3, align 8
  ret ptr %16
}

; Function Attrs: inlinehint mustprogress nounwind uwtable
define linkonce_odr dso_local noundef i32 @_ZN4pbrt3RNG7UniformIjEET_v(ptr noundef nonnull align 8 dereferenceable(16) %0) #6 comdat align 2 {
  %2 = alloca ptr, align 8
  %3 = alloca i64, align 8
  %4 = alloca i32, align 4
  %5 = alloca i32, align 4
  store ptr %0, ptr %2, align 8, !tbaa !135
  %6 = load ptr, ptr %2, align 8
  call void @llvm.lifetime.start.p0(i64 8, ptr %3) #21
  %7 = getelementptr inbounds nuw %"class.pbrt::RNG", ptr %6, i32 0, i32 0
  %8 = load i64, ptr %7, align 8, !tbaa !265
  store i64 %8, ptr %3, align 8, !tbaa !58
  %9 = load i64, ptr %3, align 8, !tbaa !58
  %10 = mul i64 %9, 6364136223846793005
  %11 = getelementptr inbounds nuw %"class.pbrt::RNG", ptr %6, i32 0, i32 1
  %12 = load i64, ptr %11, align 8, !tbaa !266
  %13 = add i64 %10, %12
  %14 = getelementptr inbounds nuw %"class.pbrt::RNG", ptr %6, i32 0, i32 0
  store i64 %13, ptr %14, align 8, !tbaa !265
  call void @llvm.lifetime.start.p0(i64 4, ptr %4) #21
  %15 = load i64, ptr %3, align 8, !tbaa !58
  %16 = lshr i64 %15, 18
  %17 = load i64, ptr %3, align 8, !tbaa !58
  %18 = xor i64 %16, %17
  %19 = lshr i64 %18, 27
  %20 = trunc i64 %19 to i32
  store i32 %20, ptr %4, align 4, !tbaa !31
  call void @llvm.lifetime.start.p0(i64 4, ptr %5) #21
  %21 = load i64, ptr %3, align 8, !tbaa !58
  %22 = lshr i64 %21, 59
  %23 = trunc i64 %22 to i32
  store i32 %23, ptr %5, align 4, !tbaa !31
  %24 = load i32, ptr %4, align 4, !tbaa !31
  %25 = load i32, ptr %5, align 4, !tbaa !31
  %26 = lshr i32 %24, %25
  %27 = load i32, ptr %4, align 4, !tbaa !31
  %28 = load i32, ptr %5, align 4, !tbaa !31
  %29 = xor i32 %28, -1
  %30 = add i32 %29, 1
  %31 = and i32 %30, 31
  %32 = shl i32 %27, %31
  %33 = or i32 %26, %32
  call void @llvm.lifetime.end.p0(i64 4, ptr %5) #21
  call void @llvm.lifetime.end.p0(i64 4, ptr %4) #21
  call void @llvm.lifetime.end.p0(i64 8, ptr %3) #21
  ret i32 %33
}

; Function Attrs: inlinehint mustprogress uwtable
define linkonce_odr dso_local noundef float @_ZN4pbrt3RNG7UniformIfEET_v(ptr noundef nonnull align 8 dereferenceable(16) %0) #7 comdat align 2 {
  %2 = alloca ptr, align 8
  %3 = alloca float, align 4
  store ptr %0, ptr %2, align 8, !tbaa !135
  %4 = load ptr, ptr %2, align 8
  call void @llvm.lifetime.start.p0(i64 4, ptr %3) #21
  %5 = call noundef i32 @_ZN4pbrt3RNG7UniformIjEET_v(ptr noundef nonnull align 8 dereferenceable(16) %4)
  %6 = uitofp i32 %5 to float
  %7 = fmul float %6, 0x3DF0000000000000
  store float %7, ptr %3, align 4, !tbaa !9
  %8 = call noundef nonnull align 4 dereferenceable(4) ptr @_ZSt3minIfERKT_S2_S2_(ptr noundef nonnull align 4 dereferenceable(4) @_ZN4pbrtL15OneMinusEpsilonE, ptr noundef nonnull align 4 dereferenceable(4) %3)
  %9 = load float, ptr %8, align 4, !tbaa !9
  call void @llvm.lifetime.end.p0(i64 4, ptr %3) #21
  ret float %9
}

; Function Attrs: mustprogress uwtable
define dso_local void @_ZN4pbrt10MLTSampler14StartIterationEv(ptr noundef nonnull align 8 dereferenceable(104) %0) #1 align 2 {
  %2 = alloca ptr, align 8
  store ptr %0, ptr %2, align 8, !tbaa !143
  %3 = load ptr, ptr %2, align 8
  %4 = getelementptr inbounds nuw %"class.pbrt::MLTSampler", ptr %3, i32 0, i32 6
  %5 = load i64, ptr %4, align 8, !tbaa !159
  %6 = add nsw i64 %5, 1
  store i64 %6, ptr %4, align 8, !tbaa !159
  %7 = getelementptr inbounds nuw %"class.pbrt::MLTSampler", ptr %3, i32 0, i32 1
  %8 = call noundef float @_ZN4pbrt3RNG7UniformIfEET_v(ptr noundef nonnull align 8 dereferenceable(16) %7)
  %9 = getelementptr inbounds nuw %"class.pbrt::MLTSampler", ptr %3, i32 0, i32 3
  %10 = load float, ptr %9, align 4, !tbaa !164
  %11 = fcmp olt float %8, %10
  %12 = getelementptr inbounds nuw %"class.pbrt::MLTSampler", ptr %3, i32 0, i32 7
  %13 = zext i1 %11 to i8
  store i8 %13, ptr %12, align 8, !tbaa !158
  ret void
}