; Function Attrs: mustprogress nofree norecurse nosync nounwind willreturn memory(argmem: readwrite) uwtable
define dso_local void @_ZN4pbrt10MLTSampler14StartIterationEv(ptr noundef nonnull align 8 captures(none) dereferenceable(104) initializes((80, 81)) %0) local_unnamed_addr #8 align 2 {
  %2 = getelementptr inbounds nuw i8, ptr %0, i64 72
  %3 = load i64, ptr %2, align 8, !tbaa !258
  %4 = add nsw i64 %3, 1
  store i64 %4, ptr %2, align 8, !tbaa !258
  %5 = getelementptr inbounds nuw i8, ptr %0, i64 8
  %6 = load i64, ptr %5, align 8, !tbaa !218
  %7 = mul i64 %6, 6364136223846793005
  %8 = getelementptr inbounds nuw i8, ptr %0, i64 16
  %9 = load i64, ptr %8, align 8, !tbaa !219
  %10 = add i64 %7, %9
  store i64 %10, ptr %5, align 8, !tbaa !218
  %11 = lshr i64 %6, 45
  %12 = lshr i64 %6, 27
  %13 = xor i64 %11, %12
  %14 = trunc i64 %13 to i32
  %15 = lshr i64 %6, 59
  %16 = trunc nuw nsw i64 %15 to i32
  %17 = tail call noundef i32 @llvm.fshr.i32(i32 %14, i32 %14, i32 %16)
  %18 = uitofp i32 %17 to float
  %19 = fmul float %18, 0x3DF0000000000000
  %20 = fcmp olt float %19, 0x3FEFFFFFE0000000
  %.sroa.speculated.i = select i1 %20, float %19, float 0x3FEFFFFFE0000000
  %21 = getelementptr inbounds nuw i8, ptr %0, i64 28
  %22 = load float, ptr %21, align 4, !tbaa !260
  %23 = fcmp olt float %.sroa.speculated.i, %22
  %24 = getelementptr inbounds nuw i8, ptr %0, i64 80
  %25 = zext i1 %23 to i8
  store i8 %25, ptr %24, align 8, !tbaa !257
  ret void
}